target datalayout = "e-m:e-p270:32:32-p271:32:32-p272:64:64-i64:64-i128:128-f80:128-n8:16:32:64-S128"
target triple = "x86_64-pc-linux-gnu"

%struct.Abc_Frame_t_ = type { ptr, ptr, ptr, ptr, ptr, ptr, ptr, ptr, ptr, ptr, i32, i32, i32, i32, i32, ptr, float, float, i32, i32, ptr, ptr, ptr, double, double, ptr, ptr, ptr, ptr, ptr, ptr, ptr, ptr, ptr, ptr, ptr, ptr, float, ptr, i32, ptr, ptr, ptr, ptr, ptr, i32, i32, i32, i32, i32, i32, ptr, ptr, ptr, ptr, ptr, ptr, i32, i32, ptr, ptr, ptr, ptr, ptr, ptr, ptr, ptr, ptr, ptr, ptr, ptr, ptr, ptr, ptr, ptr, ptr, ptr, ptr, ptr, ptr, ptr, ptr, ptr, ptr, ptr, ptr, ptr, ptr, ptr }
%struct.Abc_Ntk_t_ = type { i32, i32, ptr, ptr, ptr, ptr, ptr, ptr, ptr, ptr, ptr, ptr, ptr, [11 x i32], i32, i32, i32, i32, ptr, i32, ptr, ptr, i32, i32, i32, double, i32, %struct.Vec_Int_t_, ptr, ptr, ptr, ptr, ptr, float, i32, ptr, ptr, ptr, ptr, ptr, ptr, ptr, ptr, ptr, ptr, ptr, ptr, ptr, ptr, ptr, ptr, ptr, ptr, ptr, ptr, ptr, ptr }
%struct.Vec_Int_t_ = type { i32, i32, ptr }

@.str.53 = private unnamed_addr constant [2 x i8] c"h\00", align 1
@.str.54 = private unnamed_addr constant [40 x i8] c"There is no Liberty library available.\0A\00", align 1
@.str.59 = private unnamed_addr constant [34 x i8] c"\09-h     : print the help massage\0A\00", align 1
@.str.88 = private unnamed_addr constant [30 x i8] c"There is no current network.\0A\00", align 1
@.str.89 = private unnamed_addr constant [36 x i8] c"The current network is not mapped.\0A\00", align 1
@.str.90 = private unnamed_addr constant [22 x i8] c"usage: print_gs [-h]\0A\00", align 1
@.str.91 = private unnamed_addr constant [52 x i8] c"\09         prints gate sizes in the current mapping\0A\00", align 1

; Function Attrs: inlinehint nounwind uwtable
define internal i32 @Abc_NtkHasMapping(ptr noundef %0) #1 {
  %2 = alloca ptr, align 8
  store ptr %0, ptr %2, align 8, !tbaa !69
  %3 = load ptr, ptr %2, align 8, !tbaa !69
  %4 = getelementptr inbounds nuw %struct.Abc_Ntk_t_, ptr %3, i32 0, i32 1
  %5 = load i32, ptr %4, align 4, !tbaa !188
  %6 = icmp eq i32 %5, 4
  %7 = zext i1 %6 to i32
  ret i32 %7
}

; Function Attrs: nounwind uwtable
define internal i32 @Scl_CommandPrintGS(ptr noundef %0, i32 noundef %1, ptr noundef %2) #0 {
  %4 = alloca i32, align 4
  %5 = alloca ptr, align 8
  %6 = alloca i32, align 4
  %7 = alloca ptr, align 8
  %8 = alloca i32, align 4
  %9 = alloca i32, align 4
  store ptr %0, ptr %5, align 8, !tbaa !3
  store i32 %1, ptr %6, align 4, !tbaa !29
  store ptr %2, ptr %7, align 8, !tbaa !50
  call void @llvm.lifetime.start.p0(i64 4, ptr %8) #12
  call void (...) @Extra_UtilGetoptReset()
  br label %10

10:                                               ; preds = %3
  %11 = load i32, ptr %6, align 4, !tbaa !29
  %12 = load ptr, ptr %7, align 8, !tbaa !50
  %13 = call i32 @Extra_UtilGetopt(i32 noundef %11, ptr noundef %12, ptr noundef @.str.53)
  store i32 %13, ptr %8, align 4, !tbaa !29
  %14 = icmp ne i32 %13, -1
  br i1 %14, label %15, label %19

15:                                               ; preds = %10
  %16 = load i32, ptr %8, align 4, !tbaa !29
  switch i32 %16, label %18 [
    i32 104, label %17
  ]

17:                                               ; preds = %15
  br label %54

18:                                               ; preds = %15
  br label %54

19:                                               ; preds = %10
  %20 = load ptr, ptr %5, align 8, !tbaa !3
  %21 = call ptr @Abc_FrameReadNtk(ptr noundef %20)
  %22 = icmp eq ptr %21, null
  br i1 %22, label %23, label %28

23:                                               ; preds = %19
  %24 = load ptr, ptr %5, align 8, !tbaa !3
  %25 = getelementptr inbounds nuw %struct.Abc_Frame_t_, ptr %24, i32 0, i32 21
  %26 = load ptr, ptr %25, align 8, !tbaa !59
  %27 = call i32 (ptr, ptr, ...) @fprintf(ptr noundef %26, ptr noundef @.str.88) #12
  store i32 1, ptr %4, align 4
  store i32 1, ptr %9, align 4
  br label %67

28:                                               ; preds = %19
  %29 = load ptr, ptr %5, align 8, !tbaa !3
  %30 = call ptr @Abc_FrameReadNtk(ptr noundef %29)
  %31 = call i32 @Abc_NtkHasMapping(ptr noundef %30)
  %32 = icmp ne i32 %31, 0
  br i1 %32, label %38, label %33

33:                                               ; preds = %28
  %34 = load ptr, ptr %5, align 8, !tbaa !3
  %35 = getelementptr inbounds nuw %struct.Abc_Frame_t_, ptr %34, i32 0, i32 21
  %36 = load ptr, ptr %35, align 8, !tbaa !59
  %37 = call i32 (ptr, ptr, ...) @fprintf(ptr noundef %36, ptr noundef @.str.89) #12
  store i32 1, ptr %4, align 4
  store i32 1, ptr %9, align 4
  br label %67

38:                                               ; preds = %28
  %39 = load ptr, ptr %5, align 8, !tbaa !3
  %40 = getelementptr inbounds nuw %struct.Abc_Frame_t_, ptr %39, i32 0, i32 34
  %41 = load ptr, ptr %40, align 8, !tbaa !58
  %42 = icmp eq ptr %41, null
  br i1 %42, label %43, label %48

43:                                               ; preds = %38
  %44 = load ptr, ptr %5, align 8, !tbaa !3
  %45 = getelementptr inbounds nuw %struct.Abc_Frame_t_, ptr %44, i32 0, i32 21
  %46 = load ptr, ptr %45, align 8, !tbaa !59
  %47 = call i32 (ptr, ptr, ...) @fprintf(ptr noundef %46, ptr noundef @.str.54) #12
  store i32 1, ptr %4, align 4
  store i32 1, ptr %9, align 4
  br label %67

48:                                               ; preds = %38
  %49 = load ptr, ptr %5, align 8, !tbaa !3
  %50 = getelementptr inbounds nuw %struct.Abc_Frame_t_, ptr %49, i32 0, i32 34
  %51 = load ptr, ptr %50, align 8, !tbaa !58
  %52 = load ptr, ptr %5, align 8, !tbaa !3
  %53 = call ptr @Abc_FrameReadNtk(ptr noundef %52)
  call void @Abc_SclPrintGateSizes(ptr noundef %51, ptr noundef %53)
  store i32 0, ptr %4, align 4
  store i32 1, ptr %9, align 4
  br label %67

54:                                               ; preds = %18, %17
  %55 = load ptr, ptr %5, align 8, !tbaa !3
  %56 = getelementptr inbounds nuw %struct.Abc_Frame_t_, ptr %55, i32 0, i32 21
  %57 = load ptr, ptr %56, align 8, !tbaa !59
  %58 = call i32 (ptr, ptr, ...) @fprintf(ptr noundef %57, ptr noundef @.str.90) #12
  %59 = load ptr, ptr %5, align 8, !tbaa !3
  %60 = getelementptr inbounds nuw %struct.Abc_Frame_t_, ptr %59, i32 0, i32 21
  %61 = load ptr, ptr %60, align 8, !tbaa !59
  %62 = call i32 (ptr, ptr, ...) @fprintf(ptr noundef %61, ptr noundef @.str.91) #12
  %63 = load ptr, ptr %5, align 8, !tbaa !3
  %64 = getelementptr inbounds nuw %struct.Abc_Frame_t_, ptr %63, i32 0, i32 21
  %65 = load ptr, ptr %64, align 8, !tbaa !59
  %66 = call i32 (ptr, ptr, ...) @fprintf(ptr noundef %65, ptr noundef @.str.59) #12
  store i32 1, ptr %4, align 4
  store i32 1, ptr %9, align 4
  br label %67

67:                                               ; preds = %54, %48, %43, %33, %23
  call void @llvm.lifetime.end.p0(i64 4, ptr %8) #12
  %68 = load i32, ptr %4, align 4
  ret i32 %68
}