; Function Attrs: nounwind uwtable
define internal range(i32 0, 2) i32 @Scl_CommandPrintGS(ptr noundef %0, i32 noundef %1, ptr noundef %2) #0 {
  tail call void (...) @Extra_UtilGetoptReset() #12
  %4 = tail call i32 @Extra_UtilGetopt(i32 noundef %1, ptr noundef %2, ptr noundef nonnull @.str.53) #12
  %.not = icmp eq i32 %4, -1
  br i1 %.not, label %5, label %29

5:                                                ; preds = %3
  %6 = tail call ptr @Abc_FrameReadNtk(ptr noundef %0) #12
  %7 = icmp eq ptr %6, null
  br i1 %7, label %8, label %12

8:                                                ; preds = %5
  %9 = getelementptr inbounds nuw i8, ptr %0, i64 136
  %10 = load ptr, ptr %9, align 8, !tbaa !84
  %11 = tail call i64 @fwrite(ptr nonnull @.str.88, i64 29, i64 1, ptr %10)
  br label %37

12:                                               ; preds = %5
  %13 = tail call ptr @Abc_FrameReadNtk(ptr noundef %0) #12
  %14 = getelementptr i8, ptr %13, i64 4
  %.val = load i32, ptr %14, align 4, !tbaa !92
  %.not15 = icmp eq i32 %.val, 4
  br i1 %.not15, label %19, label %15

15:                                               ; preds = %12
  %16 = getelementptr inbounds nuw i8, ptr %0, i64 136
  %17 = load ptr, ptr %16, align 8, !tbaa !84
  %18 = tail call i64 @fwrite(ptr nonnull @.str.89, i64 35, i64 1, ptr %17)
  br label %37

19:                                               ; preds = %12
  %20 = getelementptr inbounds nuw i8, ptr %0, i64 240
  %21 = load ptr, ptr %20, align 8, !tbaa !85
  %22 = icmp eq ptr %21, null
  br i1 %22, label %23, label %27

23:                                               ; preds = %19
  %24 = getelementptr inbounds nuw i8, ptr %0, i64 136
  %25 = load ptr, ptr %24, align 8, !tbaa !84
  %26 = tail call i64 @fwrite(ptr nonnull @.str.54, i64 39, i64 1, ptr %25)
  br label %37

27:                                               ; preds = %19
  %28 = tail call ptr @Abc_FrameReadNtk(ptr noundef nonnull %0) #12
  tail call void @Abc_SclPrintGateSizes(ptr noundef nonnull %21, ptr noundef %28) #12
  br label %37

29:                                               ; preds = %3
  %30 = getelementptr inbounds nuw i8, ptr %0, i64 136
  %31 = load ptr, ptr %30, align 8, !tbaa !84
  %32 = tail call i64 @fwrite(ptr nonnull @.str.90, i64 21, i64 1, ptr %31)
  %33 = load ptr, ptr %30, align 8, !tbaa !84
  %34 = tail call i64 @fwrite(ptr nonnull @.str.91, i64 51, i64 1, ptr %33)
  %35 = load ptr, ptr %30, align 8, !tbaa !84
  %36 = tail call i64 @fwrite(ptr nonnull @.str.59, i64 33, i64 1, ptr %35)
  br label %37

37:                                               ; preds = %29, %27, %23, %15, %8
  %.0 = phi i32 [ 1, %29 ], [ 1, %8 ], [ 1, %23 ], [ 0, %27 ], [ 1, %15 ]
  ret i32 %.0
}